target datalayout = "e-m:e-p270:32:32-p271:32:32-p272:64:64-i64:64-i128:128-f80:128-n8:16:32:64-S128"
target triple = "x86_64-pc-linux-gnu"

%struct.conf_st = type { ptr, ptr, ptr, i32, i32, ptr, ptr }

; Function Attrs: nounwind uwtable
define internal i32 @is_keytype(ptr noundef %0, i8 noundef signext %1, i16 noundef zeroext %2) #0 {
  %4 = alloca i32, align 4
  %5 = alloca ptr, align 8
  %6 = alloca i8, align 1
  %7 = alloca i16, align 2
  %8 = alloca ptr, align 8
  %9 = alloca i8, align 1
  %10 = alloca i32, align 4
  store ptr %0, ptr %5, align 8, !tbaa !8
  store i8 %1, ptr %6, align 1, !tbaa !37
  store i16 %2, ptr %7, align 2, !tbaa !49
  call void @llvm.lifetime.start.p0(i64 8, ptr %8) #9
  %11 = load ptr, ptr %5, align 8, !tbaa !8
  %12 = getelementptr inbounds nuw %struct.conf_st, ptr %11, i32 0, i32 1
  %13 = load ptr, ptr %12, align 8, !tbaa !18
  store ptr %13, ptr %8, align 8, !tbaa !51
  call void @llvm.lifetime.start.p0(i64 1, ptr %9) #9
  %14 = load i8, ptr %6, align 1, !tbaa !37
  store i8 %14, ptr %9, align 1, !tbaa !37
  %15 = load i8, ptr %9, align 1, !tbaa !37
  %16 = zext i8 %15 to i32
  %17 = icmp sgt i32 %16, 127
  br i1 %17, label %18, label %19

18:                                               ; preds = %3
  store i32 0, ptr %4, align 4
  store i32 1, ptr %10, align 4
  br label %31

19:                                               ; preds = %3
  %20 = load ptr, ptr %8, align 8, !tbaa !51
  %21 = load i8, ptr %9, align 1, !tbaa !37
  %22 = zext i8 %21 to i64
  %23 = getelementptr inbounds nuw i16, ptr %20, i64 %22
  %24 = load i16, ptr %23, align 2, !tbaa !49
  %25 = zext i16 %24 to i32
  %26 = load i16, ptr %7, align 2, !tbaa !49
  %27 = zext i16 %26 to i32
  %28 = and i32 %25, %27
  %29 = icmp ne i32 %28, 0
  %30 = select i1 %29, i32 1, i32 0
  store i32 %30, ptr %4, align 4
  store i32 1, ptr %10, align 4
  br label %31

31:                                               ; preds = %19, %18
  call void @llvm.lifetime.end.p0(i64 1, ptr %9) #9
  call void @llvm.lifetime.end.p0(i64 8, ptr %8) #9
  %32 = load i32, ptr %4, align 4
  ret i32 %32
}

; Function Attrs: nounwind uwtable
define internal i32 @def_is_number(ptr noundef %0, i8 noundef signext %1) #0 {
  %3 = alloca ptr, align 8
  %4 = alloca i8, align 1
  store ptr %0, ptr %3, align 8, !tbaa !8
  store i8 %1, ptr %4, align 1, !tbaa !37
  %5 = load ptr, ptr %3, align 8, !tbaa !8
  %6 = load i8, ptr %4, align 1, !tbaa !37
  %7 = call i32 @is_keytype(ptr noundef %5, i8 noundef signext %6, i16 noundef zeroext 1)
  ret i32 %7
}