; Function Attrs: mustprogress nofree norecurse nosync nounwind willreturn memory(read, inaccessiblemem: none) uwtable
define internal range(i32 0, 2) i32 @def_is_number(ptr noundef readonly captures(none) %0, i8 noundef signext %1) #3 {
  %3 = icmp slt i8 %1, 0
  br i1 %3, label %is_keytype.exit, label %4

4:                                                ; preds = %2
  %5 = getelementptr inbounds nuw i8, ptr %0, i64 8
  %6 = load ptr, ptr %5, align 8, !tbaa !15
  %7 = zext nneg i8 %1 to i64
  %8 = getelementptr inbounds nuw i16, ptr %6, i64 %7
  %9 = load i16, ptr %8, align 2, !tbaa !26
  %10 = and i16 %9, 1
  %11 = zext nneg i16 %10 to i32
  br label %is_keytype.exit

is_keytype.exit:                                  ; preds = %2, %4
  %.0.i = phi i32 [ %11, %4 ], [ 0, %2 ]
  ret i32 %.0.i
}